; Function Attrs: nofree norecurse nosync nounwind memory(argmem: readwrite) uwtable
define dso_local void @php_random_xoshiro256starstar_jump_long(ptr noundef captures(none) %0) local_unnamed_addr #4 {
  %2 = getelementptr inbounds nuw i8, ptr %0, i64 8
  %3 = getelementptr inbounds nuw i8, ptr %0, i64 16
  %4 = getelementptr inbounds nuw i8, ptr %0, i64 24
  %.promoted.i = load i64, ptr %0, align 8, !tbaa !4
  %.promoted39.i = load i64, ptr %2, align 8, !tbaa !4
  %.promoted40.i = load i64, ptr %3, align 8, !tbaa !4
  %.promoted41.i = load i64, ptr %4, align 8, !tbaa !4
  br label %.preheader.i

.preheader.i:                                     ; preds = %11, %1
  %indvars.iv54.i = phi i64 [ 0, %1 ], [ %indvars.iv.next55.i, %11 ]
  %.02448.i = phi i64 [ 0, %1 ], [ %.2.i, %11 ]
  %.02547.i = phi i64 [ 0, %1 ], [ %.227.i, %11 ]
  %.02846.i = phi i64 [ 0, %1 ], [ %.230.i, %11 ]
  %.03145.i = phi i64 [ 0, %1 ], [ %.233.i, %11 ]
  %5 = phi i64 [ %.promoted.i, %1 ], [ %29, %11 ]
  %6 = phi i64 [ %.promoted39.i, %1 ], [ %28, %11 ]
  %7 = phi i64 [ %.promoted40.i, %1 ], [ %30, %11 ]
  %8 = phi i64 [ %.promoted41.i, %1 ], [ %31, %11 ]
  %9 = getelementptr inbounds nuw i64, ptr @php_random_xoshiro256starstar_jump_long.jmp, i64 %indvars.iv54.i
  %10 = load i64, ptr %9, align 8, !tbaa !4
  br label %12

11:                                               ; preds = %24
  %indvars.iv.next55.i = add nuw nsw i64 %indvars.iv54.i, 1
  %exitcond57.not.i = icmp eq i64 %indvars.iv.next55.i, 4
  br i1 %exitcond57.not.i, label %jump.exit, label %.preheader.i

12:                                               ; preds = %24, %.preheader.i
  %indvars.iv.i = phi i64 [ 0, %.preheader.i ], [ %indvars.iv.next.i, %24 ]
  %13 = phi i64 [ %8, %.preheader.i ], [ %31, %24 ]
  %14 = phi i64 [ %7, %.preheader.i ], [ %30, %24 ]
  %15 = phi i64 [ %6, %.preheader.i ], [ %28, %24 ]
  %16 = phi i64 [ %5, %.preheader.i ], [ %29, %24 ]
  %.137.i = phi i64 [ %.02448.i, %.preheader.i ], [ %.2.i, %24 ]
  %.12636.i = phi i64 [ %.02547.i, %.preheader.i ], [ %.227.i, %24 ]
  %.12935.i = phi i64 [ %.02846.i, %.preheader.i ], [ %.230.i, %24 ]
  %.13234.i = phi i64 [ %.03145.i, %.preheader.i ], [ %.233.i, %24 ]
  %17 = shl nuw i64 1, %indvars.iv.i
  %18 = and i64 %10, %17
  %.not.i = icmp eq i64 %18, 0
  br i1 %.not.i, label %24, label %19

19:                                               ; preds = %12
  %20 = xor i64 %.13234.i, %16
  %21 = xor i64 %.12935.i, %15
  %22 = xor i64 %.12636.i, %14
  %23 = xor i64 %.137.i, %13
  br label %24

24:                                               ; preds = %19, %12
  %.233.i = phi i64 [ %20, %19 ], [ %.13234.i, %12 ]
  %.230.i = phi i64 [ %21, %19 ], [ %.12935.i, %12 ]
  %.227.i = phi i64 [ %22, %19 ], [ %.12636.i, %12 ]
  %.2.i = phi i64 [ %23, %19 ], [ %.137.i, %12 ]
  %25 = shl i64 %15, 17
  %26 = xor i64 %16, %14
  %27 = xor i64 %15, %13
  %28 = xor i64 %26, %15
  %29 = xor i64 %27, %16
  %30 = xor i64 %26, %25
  %31 = tail call i64 @llvm.fshl.i64(i64 %27, i64 %27, i64 45)
  %indvars.iv.next.i = add nuw nsw i64 %indvars.iv.i, 1
  %exitcond.not.i = icmp eq i64 %indvars.iv.next.i, 64
  br i1 %exitcond.not.i, label %11, label %12

jump.exit:                                        ; preds = %11
  store i64 %.233.i, ptr %0, align 8, !tbaa !4
  store i64 %.230.i, ptr %2, align 8, !tbaa !4
  store i64 %.227.i, ptr %3, align 8, !tbaa !4
  store i64 %.2.i, ptr %4, align 8, !tbaa !4
  ret void
}